(lp0
(dp1
S'test_func'
p2
S'checkLen'
p3
sS'asrt_res'
p4
S'long incorrect'
p5
sS'test_id'
p6
S'3306811995020103391'
p7
sS'res'
p8
S'long incorrect'
p9
sa(dp10
g2
S'checkCity'
p11
sg4
S'region incorrect'
p12
sg6
S'100681199502010339'
p13
sg8
S'region incorrect'
p14
sa(dp15
g2
S'checkDate'
p16
sg4
S'date incorrect'
p17
sg6
S'330681199951312025'
p18
sg8
S'date incorrect'
p19
sa(dp20
g2
g16
sg4
g17
sg6
S'330681199502010B39'
p21
sg8
g19
sa(dp22
g2
S'checkByte'
p23
sg4
S'verify incorrect'
p24
sg6
g13
sg8
S'verify incorrect'
p25
sa(dp26
g2
S'checksex'
p27
sg4
S'male'
p28
sg6
S'330681199502010339'
p29
sg8
g28
sa(dp30
g2
g27
sg4
S'female'
p31
sg6
S'330681199502010349'
p32
sg8
g31
sa(dp33
g2
g27
sg4
g28
sg6
S'330681950201033'
p34
sg8
g28
sa.
